; Function Attrs: mustprogress uwtable
define { ptr, i64 } @_ZNK7rocksdb17BaseDeltaIterator3keyEv(ptr noundef nonnull readonly align 8 captures(none) dereferenceable(200) %0) unnamed_addr #4 align 2 {
  %2 = alloca %"struct.rocksdb::WriteEntry", align 8
  %3 = getelementptr inbounds nuw i8, ptr %0, i64 41
  %4 = load i8, ptr %3, align 1, !tbaa !76, !range !91, !noundef !92
  %5 = trunc nuw i8 %4 to i1
  call void @llvm.lifetime.start.p0(i64 40, ptr nonnull %2) #25
  br i1 %5, label %6, label %13

6:                                                ; preds = %1
  %7 = getelementptr inbounds nuw i8, ptr %0, i64 72
  %8 = load ptr, ptr %7, align 8, !tbaa !99
  %9 = load ptr, ptr %8, align 8, !tbaa !18
  %10 = getelementptr inbounds nuw i8, ptr %9, i64 96
  %11 = load ptr, ptr %10, align 8
  %12 = tail call { ptr, i64 } %11(ptr noundef nonnull align 8 dereferenceable(40) %8)
  br label %19

13:                                               ; preds = %1
  %14 = getelementptr inbounds nuw i8, ptr %0, i64 80
  %15 = load ptr, ptr %14, align 8, !tbaa !100
  call void @_ZNK7rocksdb16WBWIIteratorImpl5EntryEv(ptr dead_on_unwind nonnull writable sret(%"struct.rocksdb::WriteEntry") align 8 %2, ptr noundef nonnull align 8 dereferenceable(72) %15)
  %16 = getelementptr inbounds nuw i8, ptr %2, i64 8
  %.sroa.0.0.copyload = load ptr, ptr %16, align 8, !tbaa !118
  %.sroa.3.0..sroa_idx = getelementptr inbounds nuw i8, ptr %2, i64 16
  %.sroa.3.0.copyload = load i64, ptr %.sroa.3.0..sroa_idx, align 8, !tbaa !151
  %17 = insertvalue { ptr, i64 } poison, ptr %.sroa.0.0.copyload, 0
  %18 = insertvalue { ptr, i64 } %17, i64 %.sroa.3.0.copyload, 1
  br label %19

19:                                               ; preds = %13, %6
  %.fca.1.insert.merged = phi { ptr, i64 } [ %12, %6 ], [ %18, %13 ]
  call void @llvm.lifetime.end.p0(i64 40, ptr nonnull %2) #25
  ret { ptr, i64 } %.fca.1.insert.merged
}